target datalayout = "e-m:e-p270:32:32-p271:32:32-p272:64:64-i64:64-i128:128-f80:128-n8:16:32:64-S128"
target triple = "x86_64-pc-linux-gnu"

%class.anon.183 = type { ptr, ptr, ptr }
%"class.std::__1::unique_ptr.352" = type { %"class.std::__1::__compressed_pair.353" }
%"class.std::__1::__compressed_pair.353" = type { %"struct.std::__1::__compressed_pair_elem.354" }
%"struct.std::__1::__compressed_pair_elem.354" = type { ptr }
%"class.std::__1::unique_ptr.358" = type { %"class.std::__1::__compressed_pair.359" }
%"class.std::__1::__compressed_pair.359" = type { %"struct.std::__1::__compressed_pair_elem.360" }
%"struct.std::__1::__compressed_pair_elem.360" = type { ptr }
%"class.std::__1::tuple" = type { %"struct.std::__1::__tuple_impl" }
%"struct.std::__1::__tuple_impl" = type { %"class.std::__1::__tuple_leaf", %"class.std::__1::__tuple_leaf.364" }
%"class.std::__1::__tuple_leaf" = type { %"class.std::__1::unique_ptr.352" }
%"class.std::__1::__tuple_leaf.364" = type { %class.anon.183 }

; Function Attrs: mustprogress nounwind uwtable
define linkonce_odr hidden noundef nonnull align 1 dereferenceable(1) ptr @_ZNSt3__122__compressed_pair_elemINS_14default_deleteINS_15__thread_structEEELi1ELb1EE5__getB8ne190000Ev(ptr noundef nonnull align 1 dereferenceable(1) %0) #1 comdat align 2 {
  %2 = alloca ptr, align 8
  store ptr %0, ptr %2, align 8
  %3 = load ptr, ptr %2, align 8
  ret ptr %3
}

; Function Attrs: mustprogress nounwind uwtable
define linkonce_odr hidden noundef nonnull align 8 dereferenceable(8) ptr @_ZNSt3__122__compressed_pair_elemIPNS_15__thread_structELi0ELb0EE5__getB8ne190000Ev(ptr noundef nonnull align 8 dereferenceable(8) %0) #1 comdat align 2 {
  %2 = alloca ptr, align 8
  store ptr %0, ptr %2, align 8
  %3 = load ptr, ptr %2, align 8
  %4 = getelementptr inbounds %"struct.std::__1::__compressed_pair_elem.354", ptr %3, i32 0, i32 0
  ret ptr %4
}

; Function Attrs: mustprogress nounwind uwtable
define linkonce_odr hidden void @_ZNKSt3__114default_deleteINS_15__thread_structEEclB8ne190000EPS1_(ptr noundef nonnull align 1 dereferenceable(1) %0, ptr noundef %1) #1 comdat align 2 {
  %3 = alloca ptr, align 8
  %4 = alloca ptr, align 8
  store ptr %0, ptr %3, align 8
  store ptr %1, ptr %4, align 8
  %5 = load ptr, ptr %4, align 8
  %6 = icmp eq ptr %5, null
  br i1 %6, label %8, label %7

7:                                                ; preds = %2
  call void @_ZNSt3__115__thread_structD1Ev(ptr noundef nonnull align 8 dereferenceable(8) %5) #29
  call void @_ZdlPv(ptr noundef %5) #33
  br label %8

8:                                                ; preds = %7, %2
  ret void
}

; Function Attrs: mustprogress nounwind uwtable
define linkonce_odr hidden noundef nonnull align 1 dereferenceable(1) ptr @_ZNSt3__117__compressed_pairIPNS_15__thread_structENS_14default_deleteIS1_EEE6secondB8ne190000Ev(ptr noundef nonnull align 8 dereferenceable(8) %0) #1 comdat align 2 {
  %2 = alloca ptr, align 8
  store ptr %0, ptr %2, align 8
  %3 = load ptr, ptr %2, align 8
  %4 = call noundef nonnull align 1 dereferenceable(1) ptr @_ZNSt3__122__compressed_pair_elemINS_14default_deleteINS_15__thread_structEEELi1ELb1EE5__getB8ne190000Ev(ptr noundef nonnull align 1 dereferenceable(1) %3) #29
  ret ptr %4
}

; Function Attrs: mustprogress nounwind uwtable
define linkonce_odr hidden noundef nonnull align 8 dereferenceable(8) ptr @_ZNSt3__117__compressed_pairIPNS_15__thread_structENS_14default_deleteIS1_EEE5firstB8ne190000Ev(ptr noundef nonnull align 8 dereferenceable(8) %0) #1 comdat align 2 {
  %2 = alloca ptr, align 8
  store ptr %0, ptr %2, align 8
  %3 = load ptr, ptr %2, align 8
  %4 = call noundef nonnull align 8 dereferenceable(8) ptr @_ZNSt3__122__compressed_pair_elemIPNS_15__thread_structELi0ELb0EE5__getB8ne190000Ev(ptr noundef nonnull align 8 dereferenceable(8) %3) #29
  ret ptr %4
}

; Function Attrs: mustprogress nounwind uwtable
define linkonce_odr hidden void @_ZNSt3__110unique_ptrINS_15__thread_structENS_14default_deleteIS1_EEE5resetB8ne190000EPS1_(ptr noundef nonnull align 8 dereferenceable(8) %0, ptr noundef %1) #1 comdat align 2 {
  %3 = alloca ptr, align 8
  %4 = alloca ptr, align 8
  %5 = alloca ptr, align 8
  store ptr %0, ptr %3, align 8
  store ptr %1, ptr %4, align 8
  %6 = load ptr, ptr %3, align 8
  %7 = getelementptr inbounds %"class.std::__1::unique_ptr.352", ptr %6, i32 0, i32 0
  %8 = call noundef nonnull align 8 dereferenceable(8) ptr @_ZNSt3__117__compressed_pairIPNS_15__thread_structENS_14default_deleteIS1_EEE5firstB8ne190000Ev(ptr noundef nonnull align 8 dereferenceable(8) %7) #29
  %9 = load ptr, ptr %8, align 8
  store ptr %9, ptr %5, align 8
  %10 = load ptr, ptr %4, align 8
  %11 = getelementptr inbounds %"class.std::__1::unique_ptr.352", ptr %6, i32 0, i32 0
  %12 = call noundef nonnull align 8 dereferenceable(8) ptr @_ZNSt3__117__compressed_pairIPNS_15__thread_structENS_14default_deleteIS1_EEE5firstB8ne190000Ev(ptr noundef nonnull align 8 dereferenceable(8) %11) #29
  store ptr %10, ptr %12, align 8
  %13 = load ptr, ptr %5, align 8
  %14 = icmp ne ptr %13, null
  br i1 %14, label %15, label %19

15:                                               ; preds = %2
  %16 = getelementptr inbounds %"class.std::__1::unique_ptr.352", ptr %6, i32 0, i32 0
  %17 = call noundef nonnull align 1 dereferenceable(1) ptr @_ZNSt3__117__compressed_pairIPNS_15__thread_structENS_14default_deleteIS1_EEE6secondB8ne190000Ev(ptr noundef nonnull align 8 dereferenceable(8) %16) #29
  %18 = load ptr, ptr %5, align 8
  call void @_ZNKSt3__114default_deleteINS_15__thread_structEEclB8ne190000EPS1_(ptr noundef nonnull align 1 dereferenceable(1) %17, ptr noundef %18) #29
  br label %19

19:                                               ; preds = %15, %2
  ret void
}

; Function Attrs: mustprogress nounwind uwtable
define linkonce_odr hidden void @_ZNSt3__110unique_ptrINS_15__thread_structENS_14default_deleteIS1_EEED2B8ne190000Ev(ptr noundef nonnull align 8 dereferenceable(8) %0) unnamed_addr #1 comdat align 2 {
  %2 = alloca ptr, align 8
  store ptr %0, ptr %2, align 8
  %3 = load ptr, ptr %2, align 8
  call void @_ZNSt3__110unique_ptrINS_15__thread_structENS_14default_deleteIS1_EEE5resetB8ne190000EPS1_(ptr noundef nonnull align 8 dereferenceable(8) %3, ptr noundef null) #29
  ret void
}

; Function Attrs: mustprogress nounwind uwtable
define linkonce_odr hidden void @_ZNSt3__112__tuple_leafILm0ENS_10unique_ptrINS_15__thread_structENS_14default_deleteIS2_EEEELb0EED2Ev(ptr noundef nonnull align 8 dereferenceable(8) %0) unnamed_addr #1 comdat align 2 {
  %2 = alloca ptr, align 8
  store ptr %0, ptr %2, align 8
  %3 = load ptr, ptr %2, align 8
  %4 = getelementptr inbounds %"class.std::__1::__tuple_leaf", ptr %3, i32 0, i32 0
  call void @_ZNSt3__110unique_ptrINS_15__thread_structENS_14default_deleteIS1_EEED2B8ne190000Ev(ptr noundef nonnull align 8 dereferenceable(8) %4) #29
  ret void
}

; Function Attrs: mustprogress nounwind uwtable
define internal void @"_ZNSt3__112__tuple_implINS_15__tuple_indicesIJLm0ELm1EEEEJNS_10unique_ptrINS_15__thread_structENS_14default_deleteIS4_EEEEZN7mitsuba6Bitmap8read_exrEPNS8_6StreamEE3$_4EED2Ev"(ptr noundef nonnull align 8 dereferenceable(32) %0) unnamed_addr #1 align 2 {
  %2 = alloca ptr, align 8
  store ptr %0, ptr %2, align 8
  %3 = load ptr, ptr %2, align 8
  call void @_ZNSt3__112__tuple_leafILm0ENS_10unique_ptrINS_15__thread_structENS_14default_deleteIS2_EEEELb0EED2Ev(ptr noundef nonnull align 8 dereferenceable(8) %3) #29
  ret void
}

; Function Attrs: mustprogress nounwind uwtable
define internal void @"_ZNSt3__15tupleIJNS_10unique_ptrINS_15__thread_structENS_14default_deleteIS2_EEEEZN7mitsuba6Bitmap8read_exrEPNS6_6StreamEE3$_4EED2Ev"(ptr noundef nonnull align 8 dereferenceable(32) %0) unnamed_addr #1 align 2 {
  %2 = alloca ptr, align 8
  store ptr %0, ptr %2, align 8
  %3 = load ptr, ptr %2, align 8
  %4 = getelementptr inbounds %"class.std::__1::tuple", ptr %3, i32 0, i32 0
  call void @"_ZNSt3__112__tuple_implINS_15__tuple_indicesIJLm0ELm1EEEEJNS_10unique_ptrINS_15__thread_structENS_14default_deleteIS4_EEEEZN7mitsuba6Bitmap8read_exrEPNS8_6StreamEE3$_4EED2Ev"(ptr noundef nonnull align 8 dereferenceable(32) %4) #29
  ret void
}

; Function Attrs: mustprogress nounwind uwtable
define internal noundef nonnull align 1 dereferenceable(1) ptr @"_ZNSt3__122__compressed_pair_elemINS_14default_deleteINS_5tupleIJNS_10unique_ptrINS_15__thread_structENS1_IS4_EEEEZN7mitsuba6Bitmap8read_exrEPNS7_6StreamEE3$_4EEEEELi1ELb1EE5__getB8ne190000Ev"(ptr noundef nonnull align 1 dereferenceable(1) %0) #1 align 2 {
  %2 = alloca ptr, align 8
  store ptr %0, ptr %2, align 8
  %3 = load ptr, ptr %2, align 8
  ret ptr %3
}

; Function Attrs: mustprogress nounwind uwtable
define internal noundef nonnull align 8 dereferenceable(8) ptr @"_ZNSt3__122__compressed_pair_elemIPNS_5tupleIJNS_10unique_ptrINS_15__thread_structENS_14default_deleteIS3_EEEEZN7mitsuba6Bitmap8read_exrEPNS7_6StreamEE3$_4EEELi0ELb0EE5__getB8ne190000Ev"(ptr noundef nonnull align 8 dereferenceable(8) %0) #1 align 2 {
  %2 = alloca ptr, align 8
  store ptr %0, ptr %2, align 8
  %3 = load ptr, ptr %2, align 8
  %4 = getelementptr inbounds %"struct.std::__1::__compressed_pair_elem.360", ptr %3, i32 0, i32 0
  ret ptr %4
}

; Function Attrs: mustprogress nounwind uwtable
define internal void @"_ZNKSt3__114default_deleteINS_5tupleIJNS_10unique_ptrINS_15__thread_structENS0_IS3_EEEEZN7mitsuba6Bitmap8read_exrEPNS6_6StreamEE3$_4EEEEclB8ne190000EPSB_"(ptr noundef nonnull align 1 dereferenceable(1) %0, ptr noundef %1) #1 align 2 {
  %3 = alloca ptr, align 8
  %4 = alloca ptr, align 8
  store ptr %0, ptr %3, align 8
  store ptr %1, ptr %4, align 8
  %5 = load ptr, ptr %4, align 8
  %6 = icmp eq ptr %5, null
  br i1 %6, label %8, label %7

7:                                                ; preds = %2
  call void @"_ZNSt3__15tupleIJNS_10unique_ptrINS_15__thread_structENS_14default_deleteIS2_EEEEZN7mitsuba6Bitmap8read_exrEPNS6_6StreamEE3$_4EED2Ev"(ptr noundef nonnull align 8 dereferenceable(32) %5) #29
  call void @_ZdlPv(ptr noundef %5) #33
  br label %8

8:                                                ; preds = %7, %2
  ret void
}

; Function Attrs: mustprogress nounwind uwtable
define internal noundef nonnull align 1 dereferenceable(1) ptr @"_ZNSt3__117__compressed_pairIPNS_5tupleIJNS_10unique_ptrINS_15__thread_structENS_14default_deleteIS3_EEEEZN7mitsuba6Bitmap8read_exrEPNS7_6StreamEE3$_4EEENS4_ISC_EEE6secondB8ne190000Ev"(ptr noundef nonnull align 8 dereferenceable(8) %0) #1 align 2 {
  %2 = alloca ptr, align 8
  store ptr %0, ptr %2, align 8
  %3 = load ptr, ptr %2, align 8
  %4 = call noundef nonnull align 1 dereferenceable(1) ptr @"_ZNSt3__122__compressed_pair_elemINS_14default_deleteINS_5tupleIJNS_10unique_ptrINS_15__thread_structENS1_IS4_EEEEZN7mitsuba6Bitmap8read_exrEPNS7_6StreamEE3$_4EEEEELi1ELb1EE5__getB8ne190000Ev"(ptr noundef nonnull align 1 dereferenceable(1) %3) #29
  ret ptr %4
}

; Function Attrs: mustprogress nounwind uwtable
define internal noundef nonnull align 8 dereferenceable(8) ptr @"_ZNSt3__117__compressed_pairIPNS_5tupleIJNS_10unique_ptrINS_15__thread_structENS_14default_deleteIS3_EEEEZN7mitsuba6Bitmap8read_exrEPNS7_6StreamEE3$_4EEENS4_ISC_EEE5firstB8ne190000Ev"(ptr noundef nonnull align 8 dereferenceable(8) %0) #1 align 2 {
  %2 = alloca ptr, align 8
  store ptr %0, ptr %2, align 8
  %3 = load ptr, ptr %2, align 8
  %4 = call noundef nonnull align 8 dereferenceable(8) ptr @"_ZNSt3__122__compressed_pair_elemIPNS_5tupleIJNS_10unique_ptrINS_15__thread_structENS_14default_deleteIS3_EEEEZN7mitsuba6Bitmap8read_exrEPNS7_6StreamEE3$_4EEELi0ELb0EE5__getB8ne190000Ev"(ptr noundef nonnull align 8 dereferenceable(8) %3) #29
  ret ptr %4
}

; Function Attrs: mustprogress nounwind uwtable
define internal void @"_ZNSt3__110unique_ptrINS_5tupleIJNS0_INS_15__thread_structENS_14default_deleteIS2_EEEEZN7mitsuba6Bitmap8read_exrEPNS6_6StreamEE3$_4EEENS3_ISB_EEE5resetB8ne190000EPSB_"(ptr noundef nonnull align 8 dereferenceable(8) %0, ptr noundef %1) #1 align 2 {
  %3 = alloca ptr, align 8
  %4 = alloca ptr, align 8
  %5 = alloca ptr, align 8
  store ptr %0, ptr %3, align 8
  store ptr %1, ptr %4, align 8
  %6 = load ptr, ptr %3, align 8
  %7 = getelementptr inbounds %"class.std::__1::unique_ptr.358", ptr %6, i32 0, i32 0
  %8 = call noundef nonnull align 8 dereferenceable(8) ptr @"_ZNSt3__117__compressed_pairIPNS_5tupleIJNS_10unique_ptrINS_15__thread_structENS_14default_deleteIS3_EEEEZN7mitsuba6Bitmap8read_exrEPNS7_6StreamEE3$_4EEENS4_ISC_EEE5firstB8ne190000Ev"(ptr noundef nonnull align 8 dereferenceable(8) %7) #29
  %9 = load ptr, ptr %8, align 8
  store ptr %9, ptr %5, align 8
  %10 = load ptr, ptr %4, align 8
  %11 = getelementptr inbounds %"class.std::__1::unique_ptr.358", ptr %6, i32 0, i32 0
  %12 = call noundef nonnull align 8 dereferenceable(8) ptr @"_ZNSt3__117__compressed_pairIPNS_5tupleIJNS_10unique_ptrINS_15__thread_structENS_14default_deleteIS3_EEEEZN7mitsuba6Bitmap8read_exrEPNS7_6StreamEE3$_4EEENS4_ISC_EEE5firstB8ne190000Ev"(ptr noundef nonnull align 8 dereferenceable(8) %11) #29
  store ptr %10, ptr %12, align 8
  %13 = load ptr, ptr %5, align 8
  %14 = icmp ne ptr %13, null
  br i1 %14, label %15, label %19

15:                                               ; preds = %2
  %16 = getelementptr inbounds %"class.std::__1::unique_ptr.358", ptr %6, i32 0, i32 0
  %17 = call noundef nonnull align 1 dereferenceable(1) ptr @"_ZNSt3__117__compressed_pairIPNS_5tupleIJNS_10unique_ptrINS_15__thread_structENS_14default_deleteIS3_EEEEZN7mitsuba6Bitmap8read_exrEPNS7_6StreamEE3$_4EEENS4_ISC_EEE6secondB8ne190000Ev"(ptr noundef nonnull align 8 dereferenceable(8) %16) #29
  %18 = load ptr, ptr %5, align 8
  call void @"_ZNKSt3__114default_deleteINS_5tupleIJNS_10unique_ptrINS_15__thread_structENS0_IS3_EEEEZN7mitsuba6Bitmap8read_exrEPNS6_6StreamEE3$_4EEEEclB8ne190000EPSB_"(ptr noundef nonnull align 1 dereferenceable(1) %17, ptr noundef %18) #29
  br label %19

19:                                               ; preds = %15, %2
  ret void
}

; Function Attrs: mustprogress nounwind uwtable
define internal void @"_ZNSt3__110unique_ptrINS_5tupleIJNS0_INS_15__thread_structENS_14default_deleteIS2_EEEEZN7mitsuba6Bitmap8read_exrEPNS6_6StreamEE3$_4EEENS3_ISB_EEED2B8ne190000Ev"(ptr noundef nonnull align 8 dereferenceable(8) %0) unnamed_addr #1 align 2 {
  %2 = alloca ptr, align 8
  store ptr %0, ptr %2, align 8
  %3 = load ptr, ptr %2, align 8
  call void @"_ZNSt3__110unique_ptrINS_5tupleIJNS0_INS_15__thread_structENS_14default_deleteIS2_EEEEZN7mitsuba6Bitmap8read_exrEPNS6_6StreamEE3$_4EEENS3_ISB_EEE5resetB8ne190000EPSB_"(ptr noundef nonnull align 8 dereferenceable(8) %3, ptr noundef null) #29
  ret void
}