; Function Attrs: mustprogress nounwind uwtable
define internal fastcc void @"_ZNSt3__110unique_ptrINS_5tupleIJNS0_INS_15__thread_structENS_14default_deleteIS2_EEEEZN7mitsuba6Bitmap8read_exrEPNS6_6StreamEE3$_4EEENS3_ISB_EEED2B8ne190000Ev"(ptr nocapture noundef nonnull align 8 dereferenceable(8) %0) unnamed_addr #6 align 2 {
  %2 = load ptr, ptr %0, align 8
  store ptr null, ptr %0, align 8
  %.not.i = icmp eq ptr %2, null
  br i1 %.not.i, label %"_ZNSt3__110unique_ptrINS_5tupleIJNS0_INS_15__thread_structENS_14default_deleteIS2_EEEEZN7mitsuba6Bitmap8read_exrEPNS6_6StreamEE3$_4EEENS3_ISB_EEE5resetB8ne190000EPSB_.exit", label %3

3:                                                ; preds = %1
  %4 = load ptr, ptr %2, align 8
  store ptr null, ptr %2, align 8
  %.not.i.i.i.i.i.i.i = icmp eq ptr %4, null
  br i1 %.not.i.i.i.i.i.i.i, label %"_ZNKSt3__114default_deleteINS_5tupleIJNS_10unique_ptrINS_15__thread_structENS0_IS3_EEEEZN7mitsuba6Bitmap8read_exrEPNS6_6StreamEE3$_4EEEEclB8ne190000EPSB_.exit.i", label %_ZNKSt3__114default_deleteINS_15__thread_structEEclB8ne190000EPS1_.exit.i.i.i.i.i.i.i

_ZNKSt3__114default_deleteINS_15__thread_structEEclB8ne190000EPS1_.exit.i.i.i.i.i.i.i: ; preds = %3
  tail call void @_ZNSt3__115__thread_structD1Ev(ptr noundef nonnull align 8 dereferenceable(8) %4) #36
  tail call void @_ZdlPv(ptr noundef nonnull %4) #35
  br label %"_ZNKSt3__114default_deleteINS_5tupleIJNS_10unique_ptrINS_15__thread_structENS0_IS3_EEEEZN7mitsuba6Bitmap8read_exrEPNS6_6StreamEE3$_4EEEEclB8ne190000EPSB_.exit.i"

"_ZNKSt3__114default_deleteINS_5tupleIJNS_10unique_ptrINS_15__thread_structENS0_IS3_EEEEZN7mitsuba6Bitmap8read_exrEPNS6_6StreamEE3$_4EEEEclB8ne190000EPSB_.exit.i": ; preds = %_ZNKSt3__114default_deleteINS_15__thread_structEEclB8ne190000EPS1_.exit.i.i.i.i.i.i.i, %3
  tail call void @_ZdlPv(ptr noundef nonnull %2) #35
  br label %"_ZNSt3__110unique_ptrINS_5tupleIJNS0_INS_15__thread_structENS_14default_deleteIS2_EEEEZN7mitsuba6Bitmap8read_exrEPNS6_6StreamEE3$_4EEENS3_ISB_EEE5resetB8ne190000EPSB_.exit"

"_ZNSt3__110unique_ptrINS_5tupleIJNS0_INS_15__thread_structENS_14default_deleteIS2_EEEEZN7mitsuba6Bitmap8read_exrEPNS6_6StreamEE3$_4EEENS3_ISB_EEE5resetB8ne190000EPSB_.exit": ; preds = %1, %"_ZNKSt3__114default_deleteINS_5tupleIJNS_10unique_ptrINS_15__thread_structENS0_IS3_EEEEZN7mitsuba6Bitmap8read_exrEPNS6_6StreamEE3$_4EEEEclB8ne190000EPSB_.exit.i"
  ret void
}